#################################################################
#								#
#	Copyright 2001 Sanchez Computer Associates, Inc.	#
#								#
#	This source code contains the intellectual property	#
#	of its copyright holder(s), and is made available	#
#	under a license.  If you do not know the terms of	#
#	the license, please stop and do not read further.	#
#								#
#################################################################

	.arch armv6
	.fpu vfp
	.text

	.align	2
	.global	op_callb
	.type	op_callb, %function
op_callb:
	@ args = 0, pretend = 0, frame = 0
	@ frame_needed = 1, uses_anonymous_args = 0
	@ link register save eliminated.
	str	fp, [sp, #-4]!
	add	fp, sp, #0
	add	sp, fp, #0
	ldmfd	sp!, {fp}
	bx	lr
	.size	op_callb, .-op_callb

	.align	2
	.global	op_calll
	.type	op_calll, %function
op_calll:
	@ args = 0, pretend = 0, frame = 0
	@ frame_needed = 1, uses_anonymous_args = 0
	@ link register save eliminated.
	str	fp, [sp, #-4]!
	add	fp, sp, #0
	add	sp, fp, #0
	ldmfd	sp!, {fp}
	bx	lr
	.size	op_calll, .-op_calll

	.align	2
	.global	op_callw
	.type	op_callw, %function
op_callw:
	@ args = 0, pretend = 0, frame = 0
	@ frame_needed = 1, uses_anonymous_args = 0
	@ link register save eliminated.
	str	fp, [sp, #-4]!
	add	fp, sp, #0
	add	sp, fp, #0
	ldmfd	sp!, {fp}
	bx	lr
	.size	op_callw, .-op_callw
